target datalayout = "e-m:e-p270:32:32-p271:32:32-p272:64:64-i64:64-i128:128-f80:128-n8:16:32:64-S128"
target triple = "x86_64-pc-linux-gnu"

%"class.btConvexHullInternal::Int128" = type { i64, i64 }
%"class.btConvexHullInternal::Rational64" = type <{ i64, i64, i32, [4 x i8] }>

; Function Attrs: mustprogress nounwind uwtable
define linkonce_odr dso_local void @_ZN20btConvexHullInternal4DMulImjE7shlHalfERm(ptr noundef nonnull align 8 dereferenceable(8) %0) #1 comdat align 2 {
  %2 = alloca ptr, align 8
  store ptr %0, ptr %2, align 8, !tbaa !24
  %3 = load ptr, ptr %2, align 8, !tbaa !24
  %4 = load i64, ptr %3, align 8, !tbaa !14
  %5 = shl i64 %4, 32
  store i64 %5, ptr %3, align 8, !tbaa !14
  ret void
}

; Function Attrs: mustprogress nounwind uwtable
define linkonce_odr dso_local noundef i32 @_ZN20btConvexHullInternal4DMulImjE4highEm(i64 noundef %0) #1 comdat align 2 {
  %2 = alloca i64, align 8
  store i64 %0, ptr %2, align 8, !tbaa !14
  %3 = load i64, ptr %2, align 8, !tbaa !14
  %4 = lshr i64 %3, 32
  %5 = trunc i64 %4 to i32
  ret i32 %5
}

; Function Attrs: mustprogress nounwind uwtable
define linkonce_odr dso_local noundef i64 @_ZN20btConvexHullInternal4DMulImjE3mulEjj(i32 noundef %0, i32 noundef %1) #1 comdat align 2 {
  %3 = alloca i32, align 4
  %4 = alloca i32, align 4
  store i32 %0, ptr %3, align 4, !tbaa !9
  store i32 %1, ptr %4, align 4, !tbaa !9
  %5 = load i32, ptr %3, align 4, !tbaa !9
  %6 = zext i32 %5 to i64
  %7 = load i32, ptr %4, align 4, !tbaa !9
  %8 = zext i32 %7 to i64
  %9 = mul i64 %6, %8
  ret i64 %9
}

; Function Attrs: mustprogress nounwind uwtable
define linkonce_odr dso_local noundef i32 @_ZN20btConvexHullInternal4DMulImjE3lowEm(i64 noundef %0) #1 comdat align 2 {
  %2 = alloca i64, align 8
  store i64 %0, ptr %2, align 8, !tbaa !14
  %3 = load i64, ptr %2, align 8, !tbaa !14
  %4 = trunc i64 %3 to i32
  ret i32 %4
}

; Function Attrs: mustprogress uwtable
define linkonce_odr dso_local void @_ZN20btConvexHullInternal4DMulImjE3mulEmmRmS2_(i64 noundef %0, i64 noundef %1, ptr noundef nonnull align 8 dereferenceable(8) %2, ptr noundef nonnull align 8 dereferenceable(8) %3) #2 comdat align 2 {
  %5 = alloca i64, align 8
  %6 = alloca i64, align 8
  %7 = alloca ptr, align 8
  %8 = alloca ptr, align 8
  %9 = alloca i64, align 8
  %10 = alloca i64, align 8
  %11 = alloca i64, align 8
  %12 = alloca i64, align 8
  %13 = alloca i64, align 8
  store i64 %0, ptr %5, align 8, !tbaa !14
  store i64 %1, ptr %6, align 8, !tbaa !14
  store ptr %2, ptr %7, align 8, !tbaa !24
  store ptr %3, ptr %8, align 8, !tbaa !24
  call void @llvm.lifetime.start.p0(i64 8, ptr %9) #13
  %14 = load i64, ptr %5, align 8, !tbaa !14
  %15 = call noundef i32 @_ZN20btConvexHullInternal4DMulImjE3lowEm(i64 noundef %14)
  %16 = load i64, ptr %6, align 8, !tbaa !14
  %17 = call noundef i32 @_ZN20btConvexHullInternal4DMulImjE3lowEm(i64 noundef %16)
  %18 = call noundef i64 @_ZN20btConvexHullInternal4DMulImjE3mulEjj(i32 noundef %15, i32 noundef %17)
  store i64 %18, ptr %9, align 8, !tbaa !14
  call void @llvm.lifetime.start.p0(i64 8, ptr %10) #13
  %19 = load i64, ptr %5, align 8, !tbaa !14
  %20 = call noundef i32 @_ZN20btConvexHullInternal4DMulImjE3lowEm(i64 noundef %19)
  %21 = load i64, ptr %6, align 8, !tbaa !14
  %22 = call noundef i32 @_ZN20btConvexHullInternal4DMulImjE4highEm(i64 noundef %21)
  %23 = call noundef i64 @_ZN20btConvexHullInternal4DMulImjE3mulEjj(i32 noundef %20, i32 noundef %22)
  store i64 %23, ptr %10, align 8, !tbaa !14
  call void @llvm.lifetime.start.p0(i64 8, ptr %11) #13
  %24 = load i64, ptr %5, align 8, !tbaa !14
  %25 = call noundef i32 @_ZN20btConvexHullInternal4DMulImjE4highEm(i64 noundef %24)
  %26 = load i64, ptr %6, align 8, !tbaa !14
  %27 = call noundef i32 @_ZN20btConvexHullInternal4DMulImjE3lowEm(i64 noundef %26)
  %28 = call noundef i64 @_ZN20btConvexHullInternal4DMulImjE3mulEjj(i32 noundef %25, i32 noundef %27)
  store i64 %28, ptr %11, align 8, !tbaa !14
  call void @llvm.lifetime.start.p0(i64 8, ptr %12) #13
  %29 = load i64, ptr %5, align 8, !tbaa !14
  %30 = call noundef i32 @_ZN20btConvexHullInternal4DMulImjE4highEm(i64 noundef %29)
  %31 = load i64, ptr %6, align 8, !tbaa !14
  %32 = call noundef i32 @_ZN20btConvexHullInternal4DMulImjE4highEm(i64 noundef %31)
  %33 = call noundef i64 @_ZN20btConvexHullInternal4DMulImjE3mulEjj(i32 noundef %30, i32 noundef %32)
  store i64 %33, ptr %12, align 8, !tbaa !14
  call void @llvm.lifetime.start.p0(i64 8, ptr %13) #13
  %34 = load i64, ptr %10, align 8, !tbaa !14
  %35 = call noundef i32 @_ZN20btConvexHullInternal4DMulImjE3lowEm(i64 noundef %34)
  %36 = zext i32 %35 to i64
  %37 = load i64, ptr %11, align 8, !tbaa !14
  %38 = call noundef i32 @_ZN20btConvexHullInternal4DMulImjE3lowEm(i64 noundef %37)
  %39 = zext i32 %38 to i64
  %40 = add i64 %36, %39
  store i64 %40, ptr %13, align 8, !tbaa !14
  %41 = load i64, ptr %10, align 8, !tbaa !14
  %42 = call noundef i32 @_ZN20btConvexHullInternal4DMulImjE4highEm(i64 noundef %41)
  %43 = zext i32 %42 to i64
  %44 = load i64, ptr %12, align 8, !tbaa !14
  %45 = add i64 %44, %43
  store i64 %45, ptr %12, align 8, !tbaa !14
  %46 = load i64, ptr %11, align 8, !tbaa !14
  %47 = call noundef i32 @_ZN20btConvexHullInternal4DMulImjE4highEm(i64 noundef %46)
  %48 = zext i32 %47 to i64
  %49 = load i64, ptr %12, align 8, !tbaa !14
  %50 = add i64 %49, %48
  store i64 %50, ptr %12, align 8, !tbaa !14
  %51 = load i64, ptr %13, align 8, !tbaa !14
  %52 = call noundef i32 @_ZN20btConvexHullInternal4DMulImjE4highEm(i64 noundef %51)
  %53 = zext i32 %52 to i64
  %54 = load i64, ptr %12, align 8, !tbaa !14
  %55 = add i64 %54, %53
  store i64 %55, ptr %12, align 8, !tbaa !14
  call void @_ZN20btConvexHullInternal4DMulImjE7shlHalfERm(ptr noundef nonnull align 8 dereferenceable(8) %13)
  %56 = load i64, ptr %13, align 8, !tbaa !14
  %57 = load i64, ptr %9, align 8, !tbaa !14
  %58 = add i64 %57, %56
  store i64 %58, ptr %9, align 8, !tbaa !14
  %59 = load i64, ptr %9, align 8, !tbaa !14
  %60 = load i64, ptr %13, align 8, !tbaa !14
  %61 = icmp ult i64 %59, %60
  br i1 %61, label %62, label %65

62:                                               ; preds = %4
  %63 = load i64, ptr %12, align 8, !tbaa !14
  %64 = add i64 %63, 1
  store i64 %64, ptr %12, align 8, !tbaa !14
  br label %65

65:                                               ; preds = %62, %4
  %66 = load i64, ptr %9, align 8, !tbaa !14
  %67 = load ptr, ptr %7, align 8, !tbaa !24
  store i64 %66, ptr %67, align 8, !tbaa !14
  %68 = load i64, ptr %12, align 8, !tbaa !14
  %69 = load ptr, ptr %8, align 8, !tbaa !24
  store i64 %68, ptr %69, align 8, !tbaa !14
  call void @llvm.lifetime.end.p0(i64 8, ptr %13) #13
  call void @llvm.lifetime.end.p0(i64 8, ptr %12) #13
  call void @llvm.lifetime.end.p0(i64 8, ptr %11) #13
  call void @llvm.lifetime.end.p0(i64 8, ptr %10) #13
  call void @llvm.lifetime.end.p0(i64 8, ptr %9) #13
  ret void
}

; Function Attrs: mustprogress nounwind uwtable
define linkonce_odr dso_local void @_ZN20btConvexHullInternal6Int128C2Ev(ptr noundef nonnull align 8 dereferenceable(16) %0) unnamed_addr #1 comdat align 2 {
  %2 = alloca ptr, align 8
  store ptr %0, ptr %2, align 8, !tbaa !12
  ret void
}

; Function Attrs: mustprogress nounwind uwtable
define linkonce_odr dso_local noundef i32 @_ZNK20btConvexHullInternal6Int1284ucmpERKS0_(ptr noundef nonnull align 8 dereferenceable(16) %0, ptr noundef nonnull align 8 dereferenceable(16) %1) #1 comdat align 2 {
  %3 = alloca i32, align 4
  %4 = alloca ptr, align 8
  %5 = alloca ptr, align 8
  store ptr %0, ptr %4, align 8, !tbaa !12
  store ptr %1, ptr %5, align 8, !tbaa !12
  %6 = load ptr, ptr %4, align 8
  %7 = getelementptr inbounds nuw %"class.btConvexHullInternal::Int128", ptr %6, i32 0, i32 1
  %8 = load i64, ptr %7, align 8, !tbaa !16
  %9 = load ptr, ptr %5, align 8, !tbaa !12
  %10 = getelementptr inbounds nuw %"class.btConvexHullInternal::Int128", ptr %9, i32 0, i32 1
  %11 = load i64, ptr %10, align 8, !tbaa !16
  %12 = icmp ult i64 %8, %11
  br i1 %12, label %13, label %14

13:                                               ; preds = %2
  store i32 -1, ptr %3, align 4
  br label %39

14:                                               ; preds = %2
  %15 = getelementptr inbounds nuw %"class.btConvexHullInternal::Int128", ptr %6, i32 0, i32 1
  %16 = load i64, ptr %15, align 8, !tbaa !16
  %17 = load ptr, ptr %5, align 8, !tbaa !12
  %18 = getelementptr inbounds nuw %"class.btConvexHullInternal::Int128", ptr %17, i32 0, i32 1
  %19 = load i64, ptr %18, align 8, !tbaa !16
  %20 = icmp ugt i64 %16, %19
  br i1 %20, label %21, label %22

21:                                               ; preds = %14
  store i32 1, ptr %3, align 4
  br label %39

22:                                               ; preds = %14
  %23 = getelementptr inbounds nuw %"class.btConvexHullInternal::Int128", ptr %6, i32 0, i32 0
  %24 = load i64, ptr %23, align 8, !tbaa !23
  %25 = load ptr, ptr %5, align 8, !tbaa !12
  %26 = getelementptr inbounds nuw %"class.btConvexHullInternal::Int128", ptr %25, i32 0, i32 0
  %27 = load i64, ptr %26, align 8, !tbaa !23
  %28 = icmp ult i64 %24, %27
  br i1 %28, label %29, label %30

29:                                               ; preds = %22
  store i32 -1, ptr %3, align 4
  br label %39

30:                                               ; preds = %22
  %31 = getelementptr inbounds nuw %"class.btConvexHullInternal::Int128", ptr %6, i32 0, i32 0
  %32 = load i64, ptr %31, align 8, !tbaa !23
  %33 = load ptr, ptr %5, align 8, !tbaa !12
  %34 = getelementptr inbounds nuw %"class.btConvexHullInternal::Int128", ptr %33, i32 0, i32 0
  %35 = load i64, ptr %34, align 8, !tbaa !23
  %36 = icmp ugt i64 %32, %35
  br i1 %36, label %37, label %38

37:                                               ; preds = %30
  store i32 1, ptr %3, align 4
  br label %39

38:                                               ; preds = %30
  store i32 0, ptr %3, align 4
  br label %39

39:                                               ; preds = %38, %37, %29, %21, %13
  %40 = load i32, ptr %3, align 4
  ret i32 %40
}

; Function Attrs: mustprogress uwtable
define dso_local { i64, i64 } @_ZN20btConvexHullInternal6Int1283mulEmm(i64 noundef %0, i64 noundef %1) #2 align 2 {
  %3 = alloca %"class.btConvexHullInternal::Int128", align 8
  %4 = alloca i64, align 8
  %5 = alloca i64, align 8
  store i64 %0, ptr %4, align 8, !tbaa !14
  store i64 %1, ptr %5, align 8, !tbaa !14
  call void @_ZN20btConvexHullInternal6Int128C2Ev(ptr noundef nonnull align 8 dereferenceable(16) %3)
  %6 = load i64, ptr %4, align 8, !tbaa !14
  %7 = load i64, ptr %5, align 8, !tbaa !14
  %8 = getelementptr inbounds nuw %"class.btConvexHullInternal::Int128", ptr %3, i32 0, i32 0
  %9 = getelementptr inbounds nuw %"class.btConvexHullInternal::Int128", ptr %3, i32 0, i32 1
  call void @_ZN20btConvexHullInternal4DMulImjE3mulEmmRmS2_(i64 noundef %6, i64 noundef %7, ptr noundef nonnull align 8 dereferenceable(8) %8, ptr noundef nonnull align 8 dereferenceable(8) %9)
  %10 = load { i64, i64 }, ptr %3, align 8
  ret { i64, i64 } %10
}

; Function Attrs: mustprogress uwtable
define dso_local noundef i32 @_ZNK20btConvexHullInternal10Rational647compareERKS0_(ptr noundef nonnull align 8 dereferenceable(20) %0, ptr noundef nonnull align 8 dereferenceable(20) %1) #2 align 2 {
  %3 = alloca i32, align 4
  %4 = alloca ptr, align 8
  %5 = alloca ptr, align 8
  %6 = alloca %"class.btConvexHullInternal::Int128", align 8
  %7 = alloca %"class.btConvexHullInternal::Int128", align 8
  store ptr %0, ptr %4, align 8, !tbaa !26
  store ptr %1, ptr %5, align 8, !tbaa !26
  %8 = load ptr, ptr %4, align 8
  %9 = getelementptr inbounds nuw %"class.btConvexHullInternal::Rational64", ptr %8, i32 0, i32 2
  %10 = load i32, ptr %9, align 8, !tbaa !28
  %11 = load ptr, ptr %5, align 8, !tbaa !26
  %12 = getelementptr inbounds nuw %"class.btConvexHullInternal::Rational64", ptr %11, i32 0, i32 2
  %13 = load i32, ptr %12, align 8, !tbaa !28
  %14 = icmp ne i32 %10, %13
  br i1 %14, label %15, label %22

15:                                               ; preds = %2
  %16 = getelementptr inbounds nuw %"class.btConvexHullInternal::Rational64", ptr %8, i32 0, i32 2
  %17 = load i32, ptr %16, align 8, !tbaa !28
  %18 = load ptr, ptr %5, align 8, !tbaa !26
  %19 = getelementptr inbounds nuw %"class.btConvexHullInternal::Rational64", ptr %18, i32 0, i32 2
  %20 = load i32, ptr %19, align 8, !tbaa !28
  %21 = sub nsw i32 %17, %20
  store i32 %21, ptr %3, align 4
  br label %53

22:                                               ; preds = %2
  %23 = getelementptr inbounds nuw %"class.btConvexHullInternal::Rational64", ptr %8, i32 0, i32 2
  %24 = load i32, ptr %23, align 8, !tbaa !28
  %25 = icmp eq i32 %24, 0
  br i1 %25, label %26, label %27

26:                                               ; preds = %22
  store i32 0, ptr %3, align 4
  br label %53

27:                                               ; preds = %22
  br label %28

28:                                               ; preds = %27
  %29 = getelementptr inbounds nuw %"class.btConvexHullInternal::Rational64", ptr %8, i32 0, i32 2
  %30 = load i32, ptr %29, align 8, !tbaa !28
  call void @llvm.lifetime.start.p0(i64 16, ptr %6) #13
  %31 = getelementptr inbounds nuw %"class.btConvexHullInternal::Rational64", ptr %8, i32 0, i32 0
  %32 = load i64, ptr %31, align 8, !tbaa !30
  %33 = load ptr, ptr %5, align 8, !tbaa !26
  %34 = getelementptr inbounds nuw %"class.btConvexHullInternal::Rational64", ptr %33, i32 0, i32 1
  %35 = load i64, ptr %34, align 8, !tbaa !31
  %36 = call { i64, i64 } @_ZN20btConvexHullInternal6Int1283mulEmm(i64 noundef %32, i64 noundef %35)
  %37 = getelementptr inbounds nuw { i64, i64 }, ptr %6, i32 0, i32 0
  %38 = extractvalue { i64, i64 } %36, 0
  store i64 %38, ptr %37, align 8
  %39 = getelementptr inbounds nuw { i64, i64 }, ptr %6, i32 0, i32 1
  %40 = extractvalue { i64, i64 } %36, 1
  store i64 %40, ptr %39, align 8
  call void @llvm.lifetime.start.p0(i64 16, ptr %7) #13
  %41 = getelementptr inbounds nuw %"class.btConvexHullInternal::Rational64", ptr %8, i32 0, i32 1
  %42 = load i64, ptr %41, align 8, !tbaa !31
  %43 = load ptr, ptr %5, align 8, !tbaa !26
  %44 = getelementptr inbounds nuw %"class.btConvexHullInternal::Rational64", ptr %43, i32 0, i32 0
  %45 = load i64, ptr %44, align 8, !tbaa !30
  %46 = call { i64, i64 } @_ZN20btConvexHullInternal6Int1283mulEmm(i64 noundef %42, i64 noundef %45)
  %47 = getelementptr inbounds nuw { i64, i64 }, ptr %7, i32 0, i32 0
  %48 = extractvalue { i64, i64 } %46, 0
  store i64 %48, ptr %47, align 8
  %49 = getelementptr inbounds nuw { i64, i64 }, ptr %7, i32 0, i32 1
  %50 = extractvalue { i64, i64 } %46, 1
  store i64 %50, ptr %49, align 8
  %51 = call noundef i32 @_ZNK20btConvexHullInternal6Int1284ucmpERKS0_(ptr noundef nonnull align 8 dereferenceable(16) %6, ptr noundef nonnull align 8 dereferenceable(16) %7)
  %52 = mul nsw i32 %30, %51
  store i32 %52, ptr %3, align 4
  call void @llvm.lifetime.end.p0(i64 16, ptr %7) #13
  call void @llvm.lifetime.end.p0(i64 16, ptr %6) #13
  br label %53

53:                                               ; preds = %28, %26, %15
  %54 = load i32, ptr %3, align 4
  ret i32 %54
}