; Function Attrs: mustprogress nofree norecurse nosync nounwind willreturn memory(argmem: read) uwtable
define dso_local noundef i32 @_ZNK20btConvexHullInternal10Rational647compareERKS0_(ptr noundef nonnull readonly align 8 captures(none) dereferenceable(20) %0, ptr noundef nonnull readonly align 8 captures(none) dereferenceable(20) %1) local_unnamed_addr #0 align 2 {
  %3 = getelementptr inbounds nuw i8, ptr %0, i64 16
  %4 = load i32, ptr %3, align 8, !tbaa !10
  %5 = getelementptr inbounds nuw i8, ptr %1, i64 16
  %6 = load i32, ptr %5, align 8, !tbaa !10
  %.not = icmp eq i32 %4, %6
  br i1 %.not, label %9, label %7

7:                                                ; preds = %2
  %8 = sub nsw i32 %4, %6
  br label %68

9:                                                ; preds = %2
  %10 = icmp eq i32 %4, 0
  br i1 %10, label %68, label %11

11:                                               ; preds = %9
  %12 = load i64, ptr %0, align 8, !tbaa !13
  %13 = getelementptr inbounds nuw i8, ptr %1, i64 8
  %14 = load i64, ptr %13, align 8, !tbaa !14
  %15 = and i64 %12, 4294967295
  %16 = and i64 %14, 4294967295
  %17 = mul nuw i64 %16, %15
  %18 = lshr i64 %14, 32
  %19 = mul nuw i64 %18, %15
  %20 = lshr i64 %12, 32
  %21 = mul nuw i64 %16, %20
  %22 = mul nuw i64 %18, %20
  %23 = and i64 %19, 4294967295
  %24 = and i64 %21, 4294967295
  %25 = add nuw nsw i64 %23, %24
  %26 = lshr i64 %19, 32
  %27 = add nuw i64 %26, %22
  %28 = lshr i64 %21, 32
  %29 = add nuw i64 %27, %28
  %30 = lshr i64 %25, 32
  %31 = add nuw i64 %29, %30
  %32 = shl i64 %25, 32
  %33 = add i64 %32, %17
  %34 = icmp ult i64 %33, %32
  %35 = zext i1 %34 to i64
  %spec.select.i.i = add nuw i64 %31, %35
  %36 = getelementptr inbounds nuw i8, ptr %0, i64 8
  %37 = load i64, ptr %36, align 8, !tbaa !14
  %38 = load i64, ptr %1, align 8, !tbaa !13
  %39 = and i64 %37, 4294967295
  %40 = and i64 %38, 4294967295
  %41 = mul nuw i64 %40, %39
  %42 = lshr i64 %38, 32
  %43 = mul nuw i64 %42, %39
  %44 = lshr i64 %37, 32
  %45 = mul nuw i64 %40, %44
  %46 = mul nuw i64 %42, %44
  %47 = and i64 %43, 4294967295
  %48 = and i64 %45, 4294967295
  %49 = add nuw nsw i64 %47, %48
  %50 = lshr i64 %43, 32
  %51 = add nuw i64 %50, %46
  %52 = lshr i64 %45, 32
  %53 = add nuw i64 %51, %52
  %54 = lshr i64 %49, 32
  %55 = add nuw i64 %53, %54
  %56 = shl i64 %49, 32
  %57 = add i64 %56, %41
  %58 = icmp ult i64 %57, %56
  %59 = zext i1 %58 to i64
  %spec.select.i.i7 = add nuw i64 %55, %59
  %60 = icmp ult i64 %spec.select.i.i, %spec.select.i.i7
  br i1 %60, label %_ZNK20btConvexHullInternal6Int1284ucmpERKS0_.exit, label %61

61:                                               ; preds = %11
  %62 = icmp ugt i64 %spec.select.i.i, %spec.select.i.i7
  br i1 %62, label %_ZNK20btConvexHullInternal6Int1284ucmpERKS0_.exit, label %63

63:                                               ; preds = %61
  %64 = icmp ult i64 %33, %57
  br i1 %64, label %_ZNK20btConvexHullInternal6Int1284ucmpERKS0_.exit, label %65

65:                                               ; preds = %63
  %66 = icmp ugt i64 %33, %57
  %..i = zext i1 %66 to i32
  br label %_ZNK20btConvexHullInternal6Int1284ucmpERKS0_.exit

_ZNK20btConvexHullInternal6Int1284ucmpERKS0_.exit: ; preds = %11, %61, %63, %65
  %.0.i = phi i32 [ -1, %11 ], [ 1, %61 ], [ -1, %63 ], [ %..i, %65 ]
  %67 = mul nsw i32 %.0.i, %4
  br label %68

68:                                               ; preds = %9, %_ZNK20btConvexHullInternal6Int1284ucmpERKS0_.exit, %7
  %.0 = phi i32 [ %8, %7 ], [ %67, %_ZNK20btConvexHullInternal6Int1284ucmpERKS0_.exit ], [ 0, %9 ]
  ret i32 %.0
}